; Function Attrs: mustprogress nofree norecurse nosync nounwind willreturn memory(read, inaccessiblemem: none) uwtable
define hidden noundef ptr @_ZN10duckdb_re26Regexp13LeadingRegexpEPS0_(ptr noundef readonly captures(ret: address, provenance) %0) local_unnamed_addr #15 align 2 {
  %2 = load i8, ptr %0, align 8, !tbaa !26
  switch i8 %2, label %.fold.split [
    i8 2, label %13
    i8 5, label %3
  ]

3:                                                ; preds = %1
  %4 = getelementptr inbounds nuw i8, ptr %0, i64 6
  %5 = load i16, ptr %4, align 2, !tbaa !62
  %6 = icmp ugt i16 %5, 1
  br i1 %6, label %7, label %13

7:                                                ; preds = %3
  %8 = getelementptr inbounds nuw i8, ptr %0, i64 8
  %9 = load ptr, ptr %8, align 8
  %10 = load ptr, ptr %9, align 8, !tbaa !63
  %11 = load i8, ptr %10, align 8, !tbaa !26
  %12 = icmp eq i8 %11, 2
  %spec.select = select i1 %12, ptr null, ptr %10
  br label %13

.fold.split:                                      ; preds = %1
  br label %13

13:                                               ; preds = %7, %1, %.fold.split, %3
  %.0 = phi ptr [ null, %1 ], [ %0, %3 ], [ %0, %.fold.split ], [ %spec.select, %7 ]
  ret ptr %.0
}